; Function Attrs: mustprogress nounwind uwtable
define dso_local void @_ZN4node6crypto9LogSecretERKSt10unique_ptrI6ssl_stNS_15FunctionDeleterIS2_XadL_Z8SSL_freeEEEEEPKcPKhm(ptr nocapture noundef nonnull readonly align 8 dereferenceable(8) %ssl, ptr noundef %name, ptr noundef %secret, i64 noundef %secretlen) local_unnamed_addr #3 {
entry:
  %crandom = alloca [32 x i8], align 16
  %line = alloca %"class.std::__cxx11::basic_string", align 8
  %ref.tmp = alloca %"class.std::allocator", align 1
  %ref.tmp6 = alloca %"class.std::__cxx11::basic_string", align 8
  %ref.tmp7 = alloca %"class.std::__cxx11::basic_string", align 8
  %ref.tmp10 = alloca %"class.std::__cxx11::basic_string", align 8
  %ref.tmp11 = alloca %"class.std::__cxx11::basic_string", align 8
  %0 = load ptr, ptr %ssl, align 8
  %call1 = tail call ptr @SSL_get_SSL_CTX(ptr noundef %0) #17
  %call2 = tail call ptr @SSL_CTX_get_keylog_callback(ptr noundef %call1) #17
  %cmp = icmp eq ptr %call2, null
  br i1 %cmp, label %return, label %lor.lhs.false

lor.lhs.false:                                    ; preds = %entry
  %1 = load ptr, ptr %ssl, align 8
  %call4 = call i64 @SSL_get_client_random(ptr noundef %1, ptr noundef nonnull %crandom, i64 noundef 32) #17
  %cmp5.not = icmp eq i64 %call4, 32
  br i1 %cmp5.not, label %if.end, label %return

if.end:                                           ; preds = %lor.lhs.false
  call void @_ZNSaIcEC1Ev(ptr noundef nonnull align 1 dereferenceable(1) %ref.tmp) #17
  %call.i = call noundef ptr @_ZNSt7__cxx1112basic_stringIcSt11char_traitsIcESaIcEE13_M_local_dataEv(ptr noundef nonnull align 8 dereferenceable(32) %line) #17
  call void @_ZNSt7__cxx1112basic_stringIcSt11char_traitsIcESaIcEE12_Alloc_hiderC1EPcRKS3_(ptr noundef nonnull align 8 dereferenceable(8) %line, ptr noundef %call.i, ptr noundef nonnull align 1 dereferenceable(1) %ref.tmp) #17
  %cmp.i = icmp eq ptr %name, null
  br i1 %cmp.i, label %if.then.i, label %_ZNSt7__cxx1112basic_stringIcSt11char_traitsIcESaIcEEC2IS3_EEPKcRKS3_.exit

if.then.i:                                        ; preds = %if.end
  call void @_ZSt19__throw_logic_errorPKc(ptr noundef nonnull @.str.105) #18
  unreachable

_ZNSt7__cxx1112basic_stringIcSt11char_traitsIcESaIcEEC2IS3_EEPKcRKS3_.exit: ; preds = %if.end
  %call.i.i = call noundef i64 @strlen(ptr noundef nonnull dereferenceable(1) %name) #17
  %add.ptr.i = getelementptr inbounds i8, ptr %name, i64 %call.i.i
  call void @_ZNSt7__cxx1112basic_stringIcSt11char_traitsIcESaIcEE12_M_constructIPKcEEvT_S8_St20forward_iterator_tag(ptr noundef nonnull align 8 dereferenceable(32) %line, ptr noundef nonnull %name, ptr noundef nonnull %add.ptr.i)
  call void @_ZNSaIcED1Ev(ptr noundef nonnull align 1 dereferenceable(1) %ref.tmp) #17
  call void @_ZN4node11StringBytes10hex_encodeB5cxx11EPKcm(ptr nonnull sret(%"class.std::__cxx11::basic_string") align 8 %ref.tmp7, ptr noundef nonnull %crandom, i64 noundef 32) #17
  %call.i4 = call noundef nonnull align 8 dereferenceable(32) ptr @_ZNSt7__cxx1112basic_stringIcSt11char_traitsIcESaIcEE6insertEmPKc(ptr noundef nonnull align 8 dereferenceable(32) %ref.tmp7, i64 noundef 0, ptr noundef nonnull @.str) #17, !noalias !5
  call void @_ZNSt7__cxx1112basic_stringIcSt11char_traitsIcESaIcEEC1EOS4_(ptr noundef nonnull align 8 dereferenceable(32) %ref.tmp6, ptr noundef nonnull align 8 dereferenceable(32) %call.i4) #17
  %call9 = call noundef nonnull align 8 dereferenceable(32) ptr @_ZNSt7__cxx1112basic_stringIcSt11char_traitsIcESaIcEEpLERKS4_(ptr noundef nonnull align 8 dereferenceable(32) %line, ptr noundef nonnull align 8 dereferenceable(32) %ref.tmp6) #17
  call void @_ZNSt7__cxx1112basic_stringIcSt11char_traitsIcESaIcEED1Ev(ptr noundef nonnull align 8 dereferenceable(32) %ref.tmp6) #17
  call void @_ZNSt7__cxx1112basic_stringIcSt11char_traitsIcESaIcEED1Ev(ptr noundef nonnull align 8 dereferenceable(32) %ref.tmp7) #17
  call void @_ZN4node11StringBytes10hex_encodeB5cxx11EPKcm(ptr nonnull sret(%"class.std::__cxx11::basic_string") align 8 %ref.tmp11, ptr noundef %secret, i64 noundef %secretlen) #17
  %call.i5 = call noundef nonnull align 8 dereferenceable(32) ptr @_ZNSt7__cxx1112basic_stringIcSt11char_traitsIcESaIcEE6insertEmPKc(ptr noundef nonnull align 8 dereferenceable(32) %ref.tmp11, i64 noundef 0, ptr noundef nonnull @.str) #17, !noalias !8
  call void @_ZNSt7__cxx1112basic_stringIcSt11char_traitsIcESaIcEEC1EOS4_(ptr noundef nonnull align 8 dereferenceable(32) %ref.tmp10, ptr noundef nonnull align 8 dereferenceable(32) %call.i5) #17
  %call12 = call noundef nonnull align 8 dereferenceable(32) ptr @_ZNSt7__cxx1112basic_stringIcSt11char_traitsIcESaIcEEpLERKS4_(ptr noundef nonnull align 8 dereferenceable(32) %line, ptr noundef nonnull align 8 dereferenceable(32) %ref.tmp10) #17
  call void @_ZNSt7__cxx1112basic_stringIcSt11char_traitsIcESaIcEED1Ev(ptr noundef nonnull align 8 dereferenceable(32) %ref.tmp10) #17
  call void @_ZNSt7__cxx1112basic_stringIcSt11char_traitsIcESaIcEED1Ev(ptr noundef nonnull align 8 dereferenceable(32) %ref.tmp11) #17
  %2 = load ptr, ptr %ssl, align 8
  %call14 = call noundef ptr @_ZNKSt7__cxx1112basic_stringIcSt11char_traitsIcESaIcEE5c_strEv(ptr noundef nonnull align 8 dereferenceable(32) %line) #17
  call void %call2(ptr noundef %2, ptr noundef %call14) #17
  call void @_ZNSt7__cxx1112basic_stringIcSt11char_traitsIcESaIcEED1Ev(ptr noundef nonnull align 8 dereferenceable(32) %line) #17
  br label %return

return:                                           ; preds = %entry, %lor.lhs.false, %_ZNSt7__cxx1112basic_stringIcSt11char_traitsIcESaIcEEC2IS3_EEPKcRKS3_.exit
  ret void
}